target datalayout = "e-m:e-p270:32:32-p271:32:32-p272:64:64-i64:64-i128:128-f80:128-n8:16:32:64-S128"
target triple = "x86_64-pc-linux-gnu"

%struct._zval_struct = type { %union._zend_value, %union.anon, %union.anon.2 }
%union._zend_value = type { i64 }
%union.anon = type { i32 }
%union.anon.2 = type { i32 }
%struct._zend_refcounted_h = type { i32, %union.anon.3 }
%union.anon.3 = type { i32 }
%struct._spl_fixedarray_object = type { %struct._spl_fixedarray, ptr, %struct._zend_object }
%struct._spl_fixedarray = type { i64, ptr, i64 }
%struct._zend_object = type { %struct._zend_refcounted_h, i32, ptr, ptr, ptr, [1 x %struct._zval_struct] }

; Function Attrs: nounwind uwtable
define internal ptr @spl_fixed_array_from_obj(ptr noundef %0) #0 {
  %2 = alloca ptr, align 8
  store ptr %0, ptr %2, align 8
  %3 = load ptr, ptr %2, align 8
  %4 = getelementptr inbounds i8, ptr %3, i64 -32
  ret ptr %4
}

; Function Attrs: nounwind uwtable
define internal i32 @spl_fixedarray_object_count_elements(ptr noundef %0, ptr noundef %1) #0 {
  %3 = alloca ptr, align 8
  %4 = alloca ptr, align 8
  %5 = alloca ptr, align 8
  %6 = alloca ptr, align 8
  %7 = alloca ptr, align 8
  %8 = alloca i32, align 4
  %9 = alloca ptr, align 8
  %10 = alloca ptr, align 8
  %11 = alloca ptr, align 8
  %12 = alloca ptr, align 8
  %13 = alloca ptr, align 8
  %14 = alloca ptr, align 8
  %15 = alloca ptr, align 8
  %16 = alloca ptr, align 8
  %17 = alloca %struct._zval_struct, align 8
  store ptr %0, ptr %14, align 8
  store ptr %1, ptr %15, align 8
  %18 = load ptr, ptr %14, align 8
  %19 = call ptr @spl_fixed_array_from_obj(ptr noundef %18)
  store ptr %19, ptr %16, align 8
  %20 = load ptr, ptr %16, align 8
  %21 = getelementptr inbounds %struct._spl_fixedarray_object, ptr %20, i32 0, i32 1
  %22 = load ptr, ptr %21, align 8
  %23 = icmp ne ptr %22, null
  %24 = xor i1 %23, true
  %25 = xor i1 %24, true
  %26 = zext i1 %25 to i32
  %27 = sext i32 %26 to i64
  %28 = icmp ne i64 %27, 0
  br i1 %28, label %29, label %69

29:                                               ; preds = %2
  %30 = load ptr, ptr %16, align 8
  %31 = getelementptr inbounds %struct._spl_fixedarray_object, ptr %30, i32 0, i32 1
  %32 = load ptr, ptr %31, align 8
  %33 = load ptr, ptr %14, align 8
  store ptr %32, ptr %10, align 8
  store ptr %33, ptr %11, align 8
  store ptr %17, ptr %12, align 8
  %34 = load ptr, ptr %10, align 8
  %35 = load ptr, ptr %11, align 8
  %36 = load ptr, ptr %12, align 8
  store ptr %34, ptr %5, align 8
  store ptr %35, ptr %6, align 8
  store ptr %36, ptr %7, align 8
  store i32 0, ptr %8, align 4
  store ptr null, ptr %9, align 8
  %37 = load ptr, ptr %5, align 8
  %38 = load ptr, ptr %6, align 8
  %39 = load ptr, ptr %6, align 8
  %40 = getelementptr inbounds %struct._zend_object, ptr %39, i32 0, i32 2
  %41 = load ptr, ptr %40, align 8
  %42 = load ptr, ptr %7, align 8
  %43 = load i32, ptr %8, align 4
  %44 = load ptr, ptr %9, align 8
  call void @zend_call_known_function(ptr noundef %37, ptr noundef %38, ptr noundef %41, ptr noundef %42, i32 noundef %43, ptr noundef %44, ptr noundef null) #10
  store ptr %17, ptr %13, align 8
  %45 = load ptr, ptr %13, align 8
  %46 = getelementptr inbounds %struct._zval_struct, ptr %45, i32 0, i32 1
  %47 = load i8, ptr %46, align 8
  %48 = zext i8 %47 to i32
  %49 = icmp eq i32 %48, 0
  br i1 %49, label %66, label %50

50:                                               ; preds = %29
  store ptr %17, ptr %4, align 8
  %51 = load ptr, ptr %4, align 8
  store ptr %51, ptr %3, align 8
  %52 = load ptr, ptr %3, align 8
  %53 = getelementptr inbounds %struct._zval_struct, ptr %52, i32 0, i32 1
  %54 = load i8, ptr %53, align 8
  %55 = zext i8 %54 to i32
  %56 = icmp eq i32 %55, 4
  br i1 %56, label %57, label %60

57:                                               ; preds = %50
  %58 = load ptr, ptr %4, align 8
  %59 = load i64, ptr %58, align 8
  br label %63

60:                                               ; preds = %50
  %61 = load ptr, ptr %4, align 8
  %62 = call i64 @zval_get_long_func(ptr noundef %61, i1 noundef zeroext false) #10
  br label %63

63:                                               ; preds = %60, %57
  %64 = phi i64 [ %59, %57 ], [ %62, %60 ]
  %65 = load ptr, ptr %15, align 8
  store i64 %64, ptr %65, align 8
  call void @zval_ptr_dtor(ptr noundef %17)
  br label %68

66:                                               ; preds = %29
  %67 = load ptr, ptr %15, align 8
  store i64 0, ptr %67, align 8
  br label %68

68:                                               ; preds = %66, %63
  br label %75

69:                                               ; preds = %2
  %70 = load ptr, ptr %16, align 8
  %71 = getelementptr inbounds %struct._spl_fixedarray_object, ptr %70, i32 0, i32 0
  %72 = getelementptr inbounds %struct._spl_fixedarray, ptr %71, i32 0, i32 0
  %73 = load i64, ptr %72, align 8
  %74 = load ptr, ptr %15, align 8
  store i64 %73, ptr %74, align 8
  br label %75

75:                                               ; preds = %69, %68
  ret i32 0
}