; Function Attrs: nounwind uwtable
define internal noundef i32 @spl_fixedarray_object_count_elements(ptr noundef %0, ptr nocapture noundef writeonly %1) #0 {
  %3 = alloca %struct._zval_struct, align 8
  %4 = getelementptr inbounds i8, ptr %0, i64 -8
  %5 = load ptr, ptr %4, align 8
  %.not = icmp eq ptr %5, null
  br i1 %.not, label %18, label %6

6:                                                ; preds = %2
  %7 = getelementptr inbounds i8, ptr %0, i64 16
  %8 = load ptr, ptr %7, align 8
  call void @zend_call_known_function(ptr noundef nonnull %5, ptr noundef nonnull %0, ptr noundef %8, ptr noundef nonnull %3, i32 noundef 0, ptr noundef null, ptr noundef null) #12
  %9 = getelementptr inbounds i8, ptr %3, i64 8
  %10 = load i8, ptr %9, align 8
  switch i8 %10, label %13 [
    i8 0, label %17
    i8 4, label %11
  ]

11:                                               ; preds = %6
  %12 = load i64, ptr %3, align 8
  br label %15

13:                                               ; preds = %6
  %14 = call i64 @zval_get_long_func(ptr noundef nonnull %3, i1 noundef zeroext false) #12
  br label %15

15:                                               ; preds = %13, %11
  %16 = phi i64 [ %12, %11 ], [ %14, %13 ]
  store i64 %16, ptr %1, align 8
  call void @zval_ptr_dtor(ptr noundef nonnull %3) #12
  br label %21

17:                                               ; preds = %6
  store i64 0, ptr %1, align 8
  br label %21

18:                                               ; preds = %2
  %19 = getelementptr inbounds i8, ptr %0, i64 -32
  %20 = load i64, ptr %19, align 8
  store i64 %20, ptr %1, align 8
  br label %21

21:                                               ; preds = %15, %17, %18
  ret i32 0
}